target datalayout = "e-m:e-p270:32:32-p271:32:32-p272:64:64-i64:64-i128:128-f80:128-n8:16:32:64-S128"
target triple = "x86_64-pc-linux-gnu"

%class.QString = type { %struct.QArrayDataPointer }
%struct.QArrayDataPointer = type { ptr, ptr, i64 }
%class.FollowStreamDialog = type <{ %class.WiresharkDialog.base, [3 x i8], ptr, ptr, ptr, ptr, ptr, ptr, %struct._follow_info, ptr, %class.QString, %class.QString, %class.QString, i32, i32, i32, i32, i32, i8, [3 x i8], %struct.nstime_t, i32, i8, i8, [2 x i8], i32, [4 x i8] }>
%class.WiresharkDialog.base = type <{ %class.GeometryStateDialog, ptr, i8, [7 x i8], %class.QString, %class.QList, i32, i8 }>
%class.GeometryStateDialog = type { %class.QDialog, %class.QString, ptr }
%class.QDialog = type { %class.QWidget }
%class.QWidget = type { %class.QObject, %class.QPaintDevice.base, ptr }
%class.QObject = type { ptr, %class.QScopedPointer }
%class.QScopedPointer = type { ptr }
%class.QPaintDevice.base = type <{ ptr, i16 }>
%class.QList = type { %struct.QArrayDataPointer.0 }
%struct.QArrayDataPointer.0 = type { ptr, ptr, i64 }
%struct._follow_info = type { i32, ptr, ptr, [2 x i32], [2 x i32], [2 x ptr], i32, i32, %struct._address, %struct._address, ptr, i64 }
%struct._address = type { i32, i32, ptr, ptr }
%struct.nstime_t = type { i64, i32 }
%class.Ui_FollowStreamDialog = type { ptr, ptr, ptr, ptr, ptr, ptr, ptr, ptr, ptr, ptr, ptr, ptr, ptr, ptr, ptr, ptr, ptr, ptr, ptr, ptr, ptr }
%class.QPrinter = type { %class.QPagedPaintDevice, %class.QScopedPointer.8 }
%class.QPagedPaintDevice = type { %class.QPaintDevice.base, ptr }
%class.QScopedPointer.8 = type { ptr }
%class.QPrintDialog = type { %class.QAbstractPrintDialog }
%class.QAbstractPrintDialog = type { %class.QDialog }

; Function Attrs: mustprogress null_pointer_is_valid sspstrong uwtable
define void @_ZN18FollowStreamDialog11printStreamEv(ptr noundef align 8 dereferenceable_or_null(452) %0) #3 align 2 personality ptr @__gxx_personality_v0 {
  %2 = alloca ptr, align 8
  %3 = alloca %class.QPrinter, align 8
  %4 = alloca %class.QPrintDialog, align 8
  %5 = alloca ptr, align 8
  %6 = alloca i32, align 4
  store ptr %0, ptr %2, align 8
  %7 = load ptr, ptr %2, align 8
  call void @llvm.lifetime.start.p0(i64 32, ptr %3) #2
  call void @_ZN8QPrinterC1ENS_11PrinterModeE(ptr noundef align 8 dereferenceable_or_null(32) %3, i32 noundef 2)
  call void @llvm.lifetime.start.p0(i64 40, ptr %4) #2
  invoke void @_ZN12QPrintDialogC1EP8QPrinterP7QWidget(ptr noundef align 8 dereferenceable_or_null(40) %4, ptr noundef %3, ptr noundef %7)
          to label %8 unwind label %18

8:                                                ; preds = %1
  %9 = invoke noundef i32 @_ZN12QPrintDialog4execEv(ptr noundef align 8 dereferenceable_or_null(40) %4)
          to label %10 unwind label %22

10:                                               ; preds = %8
  %11 = icmp eq i32 %9, 1
  br i1 %11, label %12, label %26

12:                                               ; preds = %10
  %13 = getelementptr inbounds nuw %class.FollowStreamDialog, ptr %7, i32 0, i32 2
  %14 = load ptr, ptr %13, align 8
  %15 = getelementptr inbounds nuw %class.Ui_FollowStreamDialog, ptr %14, i32 0, i32 1
  %16 = load ptr, ptr %15, align 8
  invoke void @_ZNK14QPlainTextEdit5printEP17QPagedPaintDevice(ptr noundef align 8 dereferenceable_or_null(40) %16, ptr noundef %3)
          to label %17 unwind label %22

17:                                               ; preds = %12
  br label %26

18:                                               ; preds = %1
  %19 = landingpad { ptr, i32 }
          cleanup
  %20 = extractvalue { ptr, i32 } %19, 0
  store ptr %20, ptr %5, align 8
  %21 = extractvalue { ptr, i32 } %19, 1
  store i32 %21, ptr %6, align 4
  br label %27

22:                                               ; preds = %12, %8
  %23 = landingpad { ptr, i32 }
          cleanup
  %24 = extractvalue { ptr, i32 } %23, 0
  store ptr %24, ptr %5, align 8
  %25 = extractvalue { ptr, i32 } %23, 1
  store i32 %25, ptr %6, align 4
  call void @_ZN12QPrintDialogD1Ev(ptr noundef align 8 dereferenceable_or_null(40) %4) #2
  br label %27

26:                                               ; preds = %17, %10
  call void @_ZN12QPrintDialogD1Ev(ptr noundef align 8 dereferenceable_or_null(40) %4) #2
  call void @llvm.lifetime.end.p0(i64 40, ptr %4) #2
  call void @_ZN8QPrinterD1Ev(ptr noundef align 8 dereferenceable_or_null(32) %3) #2
  call void @llvm.lifetime.end.p0(i64 32, ptr %3) #2
  ret void

27:                                               ; preds = %22, %18
  call void @llvm.lifetime.end.p0(i64 40, ptr %4) #2
  call void @_ZN8QPrinterD1Ev(ptr noundef align 8 dereferenceable_or_null(32) %3) #2
  call void @llvm.lifetime.end.p0(i64 32, ptr %3) #2
  br label %28

28:                                               ; preds = %27
  %29 = load ptr, ptr %5, align 8
  %30 = load i32, ptr %6, align 4
  %31 = insertvalue { ptr, i32 } poison, ptr %29, 0
  %32 = insertvalue { ptr, i32 } %31, i32 %30, 1
  resume { ptr, i32 } %32
}