; Function Attrs: mustprogress null_pointer_is_valid sspstrong uwtable
define void @_ZN18FollowStreamDialog11printStreamEv(ptr noundef align 8 dereferenceable_or_null(452) %0) #2 align 2 personality ptr @__gxx_personality_v0 {
  %2 = alloca %class.QPrinter, align 8
  %3 = alloca %class.QPrintDialog, align 8
  call void @llvm.lifetime.start.p0(i64 32, ptr nonnull %2) #29
  call void @_ZN8QPrinterC1ENS_11PrinterModeE(ptr noundef nonnull align 8 dereferenceable_or_null(32) %2, i32 noundef 2)
  call void @llvm.lifetime.start.p0(i64 40, ptr nonnull %3) #29
  invoke void @_ZN12QPrintDialogC1EP8QPrinterP7QWidget(ptr noundef nonnull align 8 dereferenceable_or_null(40) %3, ptr noundef nonnull %2, ptr noundef %0)
          to label %4 unwind label %13

4:                                                ; preds = %1
  %5 = invoke noundef i32 @_ZN12QPrintDialog4execEv(ptr noundef nonnull align 8 dereferenceable_or_null(40) %3)
          to label %6 unwind label %15

6:                                                ; preds = %4
  %7 = icmp eq i32 %5, 1
  br i1 %7, label %8, label %17

8:                                                ; preds = %6
  %9 = getelementptr inbounds nuw i8, ptr %0, i64 144
  %10 = load ptr, ptr %9, align 8
  %11 = getelementptr inbounds nuw i8, ptr %10, i64 8
  %12 = load ptr, ptr %11, align 8
  invoke void @_ZNK14QPlainTextEdit5printEP17QPagedPaintDevice(ptr noundef align 8 dereferenceable_or_null(40) %12, ptr noundef nonnull %2)
          to label %17 unwind label %15

13:                                               ; preds = %1
  %14 = landingpad { ptr, i32 }
          cleanup
  br label %18

15:                                               ; preds = %8, %4
  %16 = landingpad { ptr, i32 }
          cleanup
  call void @_ZN12QPrintDialogD1Ev(ptr noundef nonnull align 8 dereferenceable_or_null(40) %3) #29
  br label %18

17:                                               ; preds = %8, %6
  call void @_ZN12QPrintDialogD1Ev(ptr noundef nonnull align 8 dereferenceable_or_null(40) %3) #29
  call void @llvm.lifetime.end.p0(i64 40, ptr nonnull %3) #29
  call void @_ZN8QPrinterD1Ev(ptr noundef nonnull align 8 dereferenceable_or_null(32) %2) #29
  call void @llvm.lifetime.end.p0(i64 32, ptr nonnull %2) #29
  ret void

18:                                               ; preds = %15, %13
  %.pn = phi { ptr, i32 } [ %16, %15 ], [ %14, %13 ]
  call void @llvm.lifetime.end.p0(i64 40, ptr nonnull %3) #29
  call void @_ZN8QPrinterD1Ev(ptr noundef nonnull align 8 dereferenceable_or_null(32) %2) #29
  call void @llvm.lifetime.end.p0(i64 32, ptr nonnull %2) #29
  resume { ptr, i32 } %.pn
}